; Function Attrs: mustprogress nofree norecurse nosync nounwind willreturn memory(argmem: read) uwtable
define noundef zeroext i1 @_ZNK8proxygen10HTTP2Codec14parsingHeadersEv(ptr nocapture noundef nonnull readonly align 8 dereferenceable(1062) %this) local_unnamed_addr #8 align 2 {
entry:
  %type = getelementptr inbounds i8, ptr %this, i64 528
  %0 = load i8, ptr %type, align 8
  switch i8 %0, label %lor.end.fold.split [
    i8 1, label %lor.end
    i8 9, label %land.rhs
  ]

land.rhs:                                         ; preds = %entry
  %headerBlockFrameType_ = getelementptr inbounds i8, ptr %this, i64 1061
  %1 = load i8, ptr %headerBlockFrameType_, align 1
  %cmp5 = icmp eq i8 %1, 1
  br label %lor.end

lor.end.fold.split:                               ; preds = %entry
  br label %lor.end

lor.end:                                          ; preds = %entry, %lor.end.fold.split, %land.rhs
  %2 = phi i1 [ true, %entry ], [ %cmp5, %land.rhs ], [ false, %lor.end.fold.split ]
  ret i1 %2
}